target datalayout = "e-m:e-p270:32:32-p271:32:32-p272:64:64-i64:64-i128:128-f80:128-n8:16:32:64-S128"
target triple = "x86_64-pc-linux-gnu"

%"class.cvc5::internal::theory::Valuation" = type { ptr }

; Function Attrs: mustprogress uwtable
define hidden noundef ptr @_ZN4cvc58internal6theory9Valuation8getModelEv(ptr noundef nonnull align 8 dereferenceable(8) %0) #6 align 2 {
  %2 = alloca ptr, align 8
  %3 = alloca ptr, align 8
  store ptr %0, ptr %3, align 8, !tbaa !24
  %4 = load ptr, ptr %3, align 8
  %5 = getelementptr inbounds nuw %"class.cvc5::internal::theory::Valuation", ptr %4, i32 0, i32 0
  %6 = load ptr, ptr %5, align 8, !tbaa !28
  %7 = icmp eq ptr %6, null
  br i1 %7, label %8, label %9

8:                                                ; preds = %1
  store ptr null, ptr %2, align 8
  br label %13

9:                                                ; preds = %1
  %10 = getelementptr inbounds nuw %"class.cvc5::internal::theory::Valuation", ptr %4, i32 0, i32 0
  %11 = load ptr, ptr %10, align 8, !tbaa !28
  %12 = call noundef ptr @_ZN4cvc58internal12TheoryEngine8getModelEv(ptr noundef nonnull align 8 dereferenceable(1480) %11)
  store ptr %12, ptr %2, align 8
  br label %13

13:                                               ; preds = %9, %8
  %14 = load ptr, ptr %2, align 8
  ret ptr %14
}

; Function Attrs: mustprogress uwtable
define hidden void @_ZN4cvc58internal6theory9Valuation17setIrrelevantKindENS0_4kind6Kind_tE(ptr noundef nonnull align 8 dereferenceable(8) %0, i32 noundef %1) #6 align 2 {
  %3 = alloca ptr, align 8
  %4 = alloca i32, align 4
  %5 = alloca ptr, align 8
  store ptr %0, ptr %3, align 8, !tbaa !24
  store i32 %1, ptr %4, align 4, !tbaa !170
  %6 = load ptr, ptr %3, align 8
  call void @llvm.lifetime.start.p0(i64 8, ptr %5) #3
  %7 = call noundef ptr @_ZN4cvc58internal6theory9Valuation8getModelEv(ptr noundef nonnull align 8 dereferenceable(8) %6)
  store ptr %7, ptr %5, align 8, !tbaa !172
  %8 = load ptr, ptr %5, align 8, !tbaa !172
  %9 = icmp ne ptr %8, null
  br i1 %9, label %10, label %13

10:                                               ; preds = %2
  %11 = load ptr, ptr %5, align 8, !tbaa !172
  %12 = load i32, ptr %4, align 4, !tbaa !170
  call void @_ZN4cvc58internal6theory11TheoryModel17setIrrelevantKindENS0_4kind6Kind_tE(ptr noundef nonnull align 8 dereferenceable(968) %11, i32 noundef %12)
  br label %13

13:                                               ; preds = %10, %2
  call void @llvm.lifetime.end.p0(i64 8, ptr %5) #3
  ret void
}